ccopy_reg
_reconstructor
p1
(cxmppd.modules.db_fake
DictWatch
p2
c__builtin__
dict
p3
(dp4
S'127.0.0.1'
p5
g1
(g2
g3
(dp6
S'acc'
p7
g1
(g2
g3
(dp8
S'name'
p9
S'ACC'
p10
sS'groups'
p11
g1
(g2
g3
(dtRp12
sS'roster'
p13
g1
(g2
g3
(dtRp14
sS'anon_allow'
p15
S'yes'
p16
sS'password'
p17
S'mdsEwugG'
p18
sS'storage'
p19
g1
(g2
g3
(dtRp20
stRp21
sVcoordinator
p22
g1
(g2
g3
(dp23
g9
Vcoordinator
p24
sg11
g1
(g2
g3
(dtRp25
sg13
g1
(g2
g3
(dp26
Vams.127.0.0.1
p27
(dp28
S'state'
p29
S''
sS'subscription'
p30
S'to'
p31
sstRp32
sg15
g16
sg17
Vgame
p33
sg19
g1
(g2
g3
(dtRp34
stRp35
sVwhisperer
p36
g1
(g2
g3
(dp37
g9
Vwhisperer
p38
sg11
g1
(g2
g3
(dtRp39
sg13
g1
(g2
g3
(dp40
Vams.127.0.0.1
p41
(dp42
g29
S''
sg30
g31
sstRp43
sg15
g16
sg17
Vgame
p44
sg19
g1
(g2
g3
(dtRp45
stRp46
sS'df'
p47
g1
(g2
g3
(dp48
g9
S'DF'
p49
sg11
g1
(g2
g3
(dtRp50
sg13
g1
(g2
g3
(dtRp51
sg15
g16
sg17
S'toPgTDSB'
p52
sg19
g1
(g2
g3
(dtRp53
stRp54
sS'ams'
p55
g1
(g2
g3
(dp56
g9
S'AMS'
p57
sg11
g1
(g2
g3
(dtRp58
sg13
g1
(g2
g3
(dp59
S'coordinator@127.0.0.1'
p60
(dp61
g29
S''
sg30
S'from'
p62
ssS'whisperer@127.0.0.1'
p63
(dp64
g29
S''
sg30
g62
sstRp65
sg15
g16
sg17
S'tCqHjZas'
p66
sg19
g1
(g2
g3
(dtRp67
stRp68
sS'__ir__'
p69
(dp70
g15
g16
sg17
S'test'
p71
sg19
(dp72
S'karma'
p73
(dp74
S'down'
p75
I307200
sS'tot_up'
p76
I0
sS'tot_down'
p77
I0
sS'up'
p78
I307200307200307200
sS'last_time'
p79
F0
sssg11
(dp80
sg13
(dp81
sstRp82
stRp83
.