ccopy_reg
_reconstructor
p1
(cxmppd.modules.db_fake
DictWatch
p2
c__builtin__
dict
p3
(dp4
S'127.0.0.1'
p5
g1
(g2
g3
(dp6
S'acc'
p7
g1
(g2
g3
(dp8
S'name'
p9
S'ACC'
p10
sS'groups'
p11
g1
(g2
g3
(dtRp12
sS'roster'
p13
g1
(g2
g3
(dtRp14
sS'anon_allow'
p15
S'yes'
p16
sS'password'
p17
S'OJleyWdR'
p18
sS'storage'
p19
g1
(g2
g3
(dtRp20
stRp21
sVplayerb
p22
g1
(g2
g3
(dp23
S'name'
p24
VplayerB
p25
sS'groups'
p26
g1
(g2
g3
(dtRp27
sS'roster'
p28
g1
(g2
g3
(dtRp29
sS'anon_allow'
p30
S'yes'
p31
sS'password'
p32
Vgame
p33
sS'storage'
p34
g1
(g2
g3
(dtRp35
stRp36
sVplayera
p37
g1
(g2
g3
(dp38
g24
VplayerA
p39
sg26
g1
(g2
g3
(dtRp40
sg28
g1
(g2
g3
(dtRp41
sg30
g31
sg32
Vgame
p42
sg34
g1
(g2
g3
(dtRp43
stRp44
sVgamer2
p45
g1
(g2
g3
(dp46
S'name'
p47
Vgamer2
p48
sS'groups'
p49
g1
(g2
g3
(dtRp50
sS'roster'
p51
g1
(g2
g3
(dp52
Vams.127.0.0.1
p53
(dp54
S'state'
p55
S''
sS'subscription'
p56
S'to'
p57
sstRp58
sS'anon_allow'
p59
S'yes'
p60
sS'password'
p61
Vgame2
p62
sS'storage'
p63
g1
(g2
g3
(dtRp64
stRp65
sVgamer3
p66
g1
(g2
g3
(dp67
S'name'
p68
Vgamer3
p69
sS'groups'
p70
g1
(g2
g3
(dtRp71
sS'roster'
p72
g1
(g2
g3
(dp73
Vams.127.0.0.1
p74
(dp75
S'state'
p76
S''
sS'subscription'
p77
S'to'
p78
sstRp79
sS'anon_allow'
p80
S'yes'
p81
sS'password'
p82
Vgame1
p83
sS'storage'
p84
g1
(g2
g3
(dtRp85
stRp86
sVgamer1
p87
g1
(g2
g3
(dp88
S'name'
p89
Vgamer1
p90
sS'groups'
p91
g1
(g2
g3
(dtRp92
sS'roster'
p93
g1
(g2
g3
(dp94
Vams.127.0.0.1
p95
(dp96
S'state'
p97
S''
sS'subscription'
p98
S'to'
p99
sstRp100
sS'anon_allow'
p101
S'yes'
p102
sS'password'
p103
Vgame123
p104
sS'storage'
p105
g1
(g2
g3
(dtRp106
stRp107
sS'df'
p108
g1
(g2
g3
(dp109
g9
S'DF'
p110
sg11
g1
(g2
g3
(dtRp111
sg13
g1
(g2
g3
(dtRp112
sg15
g16
sg17
S'mmYYirlF'
p113
sg19
g1
(g2
g3
(dtRp114
stRp115
sVgamer123
p116
g1
(g2
g3
(dp117
S'name'
p118
Vgamer123
p119
sS'groups'
p120
g1
(g2
g3
(dtRp121
sS'roster'
p122
g1
(g2
g3
(dp123
Vams.127.0.0.1
p124
(dp125
S'state'
p126
S''
sS'subscription'
p127
S'to'
p128
sstRp129
sS'anon_allow'
p130
S'yes'
p131
sS'password'
p132
Vgame123
p133
sS'storage'
p134
g1
(g2
g3
(dtRp135
stRp136
sVgamer
p137
g1
(g2
g3
(dp138
g47
Vgamer
p139
sg49
g1
(g2
g3
(dtRp140
sg51
g1
(g2
g3
(dp141
Vams.127.0.0.1
p142
(dp143
g55
S''
sg56
g57
sstRp144
sg59
g60
sg61
Vgame1
p145
sg63
g1
(g2
g3
(dtRp146
stRp147
sVwhisperer
p148
g1
(g2
g3
(dp149
g24
Vwhisperer
p150
sg26
g1
(g2
g3
(dtRp151
sg28
g1
(g2
g3
(dp152
Vams.127.0.0.1
p153
(dp154
S'state'
p155
S''
sS'subscription'
p156
S'to'
p157
sstRp158
sg30
g31
sg32
Vgame
p159
sg34
g1
(g2
g3
(dtRp160
stRp161
sS'ams'
p162
g1
(g2
g3
(dp163
g9
S'AMS'
p164
sg11
g1
(g2
g3
(dtRp165
sg13
g1
(g2
g3
(dp166
S'coordinator@127.0.0.1'
p167
(dp168
S'state'
p169
S''
sS'subscription'
p170
S'from'
p171
ssS'whisperer@127.0.0.1'
p172
(dp173
g169
S''
sg170
g171
ssS'gamer3@127.0.0.1'
p174
(dp175
g169
S''
sg170
g171
ssS'gamer2@127.0.0.1'
p176
(dp177
g169
S''
sg170
g171
sstRp178
sg15
g16
sg17
S'mDNYGkea'
p179
sg19
g1
(g2
g3
(dtRp180
stRp181
sVplaniram
p182
g1
(g2
g3
(dp183
S'name'
p184
Vplaniram
p185
sS'groups'
p186
g1
(g2
g3
(dtRp187
sS'roster'
p188
g1
(g2
g3
(dp189
Vams.127.0.0.1
p190
(dp191
S'state'
p192
S''
sS'subscription'
p193
S'to'
p194
sstRp195
sS'anon_allow'
p196
S'yes'
p197
sS'password'
p198
Vtajna
p199
sS'storage'
p200
g1
(g2
g3
(dtRp201
stRp202
sVcoordinator
p203
g1
(g2
g3
(dp204
g24
Vcoordinator
p205
sg26
g1
(g2
g3
(dtRp206
sg28
g1
(g2
g3
(dp207
Vams.127.0.0.1
p208
(dp209
g155
S''
sg156
g157
sstRp210
sg30
g31
sg32
Vgame
p211
sg34
g1
(g2
g3
(dtRp212
stRp213
sS'__ir__'
p214
(dp215
g15
g16
sg17
S'test'
p216
sg19
(dp217
S'karma'
p218
(dp219
S'down'
p220
I307200
sS'tot_up'
p221
I0
sS'tot_down'
p222
I0
sS'up'
p223
I307200307200307200
sS'last_time'
p224
F0
sssg11
(dp225
sg13
(dp226
sstRp227
stRp228
.